; Function Attrs: mustprogress uwtable
define void @_ZN3zmq13socket_base_t5eventERKNS_19endpoint_uri_pair_tEPmmm(ptr noundef nonnull align 8 dereferenceable(1825) %0, ptr noundef nonnull readonly align 8 captures(none) dereferenceable(68) %1, ptr noundef readonly captures(none) %2, i64 noundef %3, i64 noundef %4) local_unnamed_addr #0 align 2 personality ptr @__gxx_personality_v0 {
  %6 = alloca %"struct.zmq::scoped_lock_t", align 8
  call void @llvm.lifetime.start.p0(i64 8, ptr nonnull %6) #36
  %7 = getelementptr inbounds nuw i8, ptr %0, i64 1776
  store ptr %7, ptr %6, align 8, !tbaa !151
  %8 = tail call i32 @pthread_mutex_lock(ptr noundef nonnull align 8 dereferenceable(44) %7) #36
  %.not.i.i = icmp eq i32 %8, 0
  br i1 %.not.i.i, label %_ZN3zmq13scoped_lock_tC2ERNS_7mutex_tE.exit, label %9, !prof !116

9:                                                ; preds = %5
  %10 = tail call ptr @strerror(i32 noundef %8) #36
  %11 = load ptr, ptr @stderr, align 8, !tbaa !100
  %12 = tail call i32 (ptr, ptr, ...) @fprintf(ptr noundef %11, ptr noundef nonnull @.str.9, ptr noundef %10, ptr noundef nonnull @.str.23, i32 noundef 109) #42
  %13 = load ptr, ptr @stderr, align 8, !tbaa !100
  %14 = tail call i32 @fflush(ptr noundef %13)
  tail call void @_ZN3zmq9zmq_abortEPKc(ptr noundef %10)
  br label %_ZN3zmq13scoped_lock_tC2ERNS_7mutex_tE.exit

_ZN3zmq13scoped_lock_tC2ERNS_7mutex_tE.exit:      ; preds = %5, %9
  %15 = getelementptr inbounds nuw i8, ptr %0, i64 1720
  %16 = load i64, ptr %15, align 8, !tbaa !118
  %17 = and i64 %16, %4
  %.not = icmp eq i64 %17, 0
  br i1 %.not, label %21, label %18

18:                                               ; preds = %_ZN3zmq13scoped_lock_tC2ERNS_7mutex_tE.exit
  invoke void @_ZNK3zmq13socket_base_t13monitor_eventEmPKmmRKNS_19endpoint_uri_pair_tE(ptr noundef nonnull align 8 dereferenceable(1825) %0, i64 noundef %4, ptr noundef %2, i64 noundef %3, ptr noundef nonnull align 8 dereferenceable(68) %1)
          to label %21 unwind label %19

19:                                               ; preds = %18
  %20 = landingpad { ptr, i32 }
          cleanup
  call void @_ZN3zmq13scoped_lock_tD2Ev(ptr noundef nonnull align 8 dereferenceable(8) %6) #36
  call void @llvm.lifetime.end.p0(i64 8, ptr nonnull %6) #36
  resume { ptr, i32 } %20

21:                                               ; preds = %18, %_ZN3zmq13scoped_lock_tC2ERNS_7mutex_tE.exit
  %22 = tail call i32 @pthread_mutex_unlock(ptr noundef nonnull align 8 dereferenceable(44) %7) #36
  %.not.i.i7 = icmp eq i32 %22, 0
  br i1 %.not.i.i7, label %_ZN3zmq13scoped_lock_tD2Ev.exit, label %23, !prof !116

23:                                               ; preds = %21
  %24 = tail call ptr @strerror(i32 noundef %22) #36
  %25 = load ptr, ptr @stderr, align 8, !tbaa !100
  %26 = tail call i32 (ptr, ptr, ...) @fprintf(ptr noundef %25, ptr noundef nonnull @.str.9, ptr noundef %24, ptr noundef nonnull @.str.23, i32 noundef 125) #42
  %27 = load ptr, ptr @stderr, align 8, !tbaa !100
  %28 = tail call i32 @fflush(ptr noundef %27)
  invoke void @_ZN3zmq9zmq_abortEPKc(ptr noundef %24)
          to label %_ZN3zmq13scoped_lock_tD2Ev.exit unwind label %29

29:                                               ; preds = %23
  %30 = landingpad { ptr, i32 }
          catch ptr null
  %31 = extractvalue { ptr, i32 } %30, 0
  tail call void @__clang_call_terminate(ptr %31) #43
  unreachable

_ZN3zmq13scoped_lock_tD2Ev.exit:                  ; preds = %21, %23
  call void @llvm.lifetime.end.p0(i64 8, ptr nonnull %6) #36
  ret void
}